; Function Attrs: nounwind uwtable
define void @Cba_ManWriteBlifNtk(ptr noundef captures(none) %0, ptr noundef %1) local_unnamed_addr #0 {
  %.val = load ptr, ptr %1, align 8, !tbaa !34
  %3 = getelementptr i8, ptr %1, i64 12
  %.val13 = load i32, ptr %3, align 4, !tbaa !38
  %4 = getelementptr i8, ptr %.val, i64 16
  %.val.val = load ptr, ptr %4, align 8, !tbaa !39
  %5 = tail call ptr @Abc_NamStr(ptr noundef %.val.val, i32 noundef %.val13) #7
  %6 = tail call i32 (ptr, ptr, ...) @fprintf(ptr noundef %0, ptr noundef nonnull @.str.10, ptr noundef %5) #7
  %7 = tail call i64 @fwrite(ptr nonnull @.str.11, i64 7, i64 1, ptr %0)
  %8 = getelementptr inbounds nuw i8, ptr %1, i64 24
  tail call void @Cba_ManWriteBlifArray(ptr noundef %0, ptr noundef nonnull %1, ptr noundef nonnull %8)
  %9 = tail call i64 @fwrite(ptr nonnull @.str.12, i64 8, i64 1, ptr %0)
  %10 = getelementptr inbounds nuw i8, ptr %1, i64 40
  tail call void @Cba_ManWriteBlifArray(ptr noundef %0, ptr noundef nonnull %1, ptr noundef nonnull %10)
  tail call void @Cba_ManWriteBlifLines(ptr noundef %0, ptr noundef nonnull %1)
  %11 = tail call i64 @fwrite(ptr nonnull @.str.13, i64 6, i64 1, ptr %0)
  ret void
}